target datalayout = "e-m:e-p270:32:32-p271:32:32-p272:64:64-i64:64-i128:128-f80:128-n8:16:32:64-S128"
target triple = "x86_64-pc-linux-gnu"

%struct.cl_engine = type { i32, i32, i32, [2 x i32], i32, i32, i32, ptr, i32, i64, i32, i32, i64, i64, i32, i32, i32, i32, ptr, ptr, ptr, ptr, ptr, ptr, ptr, ptr, ptr, ptr, ptr, ptr, ptr, ptr, ptr, ptr, ptr, ptr, ptr, i64, ptr, %struct.crtmgr, ptr, ptr, ptr, ptr, ptr, ptr, ptr, ptr, ptr, ptr, ptr, ptr, ptr, ptr, ptr, ptr, ptr, %struct.cli_all_bc, [7 x ptr], [7 x i32], i32, i32, i32, i32, i64, i64, i64, i64, i64, ptr, ptr, ptr, ptr, ptr, ptr, ptr, ptr, ptr, i32, i32, i32, i64, i64, i64, ptr }
%struct.crtmgr = type { ptr, i32 }
%struct.cli_all_bc = type { ptr, i32, ptr, %struct.cli_environment, i32 }
%struct.cli_environment = type { i32, i32, i32, i32, i32, i32, i32, [65 x i8], [65 x i8], [65 x i8], [65 x i8], [65 x i8], [65 x i8], [65 x i8], i8, i8, i8, i8, i8, i8, i8, i8, i8 }
%struct.cli_ftype = type { i32, i32, ptr, ptr, ptr, i16 }

@.str = private unnamed_addr constant [25 x i8] c"Recognized %s partition\0A\00", align 1
@.str.1 = private unnamed_addr constant [43 x i8] c"Partition type is potentially unsupported\0A\00", align 1

; Function Attrs: nounwind uwtable
define i32 @cli_compare_ftm_partition(ptr noundef %0, i64 noundef %1, ptr noundef %2) #0 {
  %4 = alloca i32, align 4
  %5 = alloca ptr, align 8
  %6 = alloca i64, align 8
  %7 = alloca ptr, align 8
  %8 = alloca ptr, align 8
  store ptr %0, ptr %5, align 8
  store i64 %1, ptr %6, align 8
  store ptr %2, ptr %7, align 8
  %9 = load ptr, ptr %7, align 8
  %10 = getelementptr inbounds %struct.cl_engine, ptr %9, i32 0, i32 29
  %11 = load ptr, ptr %10, align 8
  store ptr %11, ptr %8, align 8
  br label %12

12:                                               ; preds = %51, %3
  %13 = load ptr, ptr %8, align 8
  %14 = icmp ne ptr %13, null
  br i1 %14, label %15, label %55

15:                                               ; preds = %12
  %16 = load ptr, ptr %8, align 8
  %17 = getelementptr inbounds %struct.cli_ftype, ptr %16, i32 0, i32 1
  %18 = load i32, ptr %17, align 4
  %19 = load ptr, ptr %8, align 8
  %20 = getelementptr inbounds %struct.cli_ftype, ptr %19, i32 0, i32 5
  %21 = load i16, ptr %20, align 8
  %22 = zext i16 %21 to i32
  %23 = add i32 %18, %22
  %24 = zext i32 %23 to i64
  %25 = load i64, ptr %6, align 8
  %26 = icmp ule i64 %24, %25
  br i1 %26, label %27, label %51

27:                                               ; preds = %15
  %28 = load ptr, ptr %5, align 8
  %29 = load ptr, ptr %8, align 8
  %30 = getelementptr inbounds %struct.cli_ftype, ptr %29, i32 0, i32 1
  %31 = load i32, ptr %30, align 4
  %32 = zext i32 %31 to i64
  %33 = getelementptr inbounds i8, ptr %28, i64 %32
  %34 = load ptr, ptr %8, align 8
  %35 = getelementptr inbounds %struct.cli_ftype, ptr %34, i32 0, i32 2
  %36 = load ptr, ptr %35, align 8
  %37 = load ptr, ptr %8, align 8
  %38 = getelementptr inbounds %struct.cli_ftype, ptr %37, i32 0, i32 5
  %39 = load i16, ptr %38, align 8
  %40 = zext i16 %39 to i64
  %41 = call i32 @memcmp(ptr noundef %33, ptr noundef %36, i64 noundef %40) #6
  %42 = icmp ne i32 %41, 0
  br i1 %42, label %50, label %43

43:                                               ; preds = %27
  %44 = load ptr, ptr %8, align 8
  %45 = getelementptr inbounds %struct.cli_ftype, ptr %44, i32 0, i32 3
  %46 = load ptr, ptr %45, align 8
  call void (ptr, ...) @cli_dbgmsg(ptr noundef @.str, ptr noundef %46)
  %47 = load ptr, ptr %8, align 8
  %48 = getelementptr inbounds %struct.cli_ftype, ptr %47, i32 0, i32 0
  %49 = load i32, ptr %48, align 8
  store i32 %49, ptr %4, align 4
  br label %56

50:                                               ; preds = %27
  br label %51

51:                                               ; preds = %50, %15
  %52 = load ptr, ptr %8, align 8
  %53 = getelementptr inbounds %struct.cli_ftype, ptr %52, i32 0, i32 4
  %54 = load ptr, ptr %53, align 8
  store ptr %54, ptr %8, align 8
  br label %12

55:                                               ; preds = %12
  call void (ptr, ...) @cli_dbgmsg(ptr noundef @.str.1)
  store i32 557, ptr %4, align 4
  br label %56

56:                                               ; preds = %55, %43
  %57 = load i32, ptr %4, align 4
  ret i32 %57
}