; Function Attrs: nounwind uwtable
define i32 @cli_compare_ftm_partition(ptr noundef readonly captures(none) %0, i64 noundef %1, ptr noundef readonly captures(none) %2) local_unnamed_addr #3 {
  %4 = getelementptr inbounds nuw i8, ptr %2, i64 184
  %.016 = load ptr, ptr %4, align 8
  %.not17 = icmp eq ptr %.016, null
  br i1 %.not17, label %._crit_edge, label %.lr.ph

.lr.ph:                                           ; preds = %3, %22
  %.018 = phi ptr [ %.0, %22 ], [ %.016, %3 ]
  %5 = getelementptr inbounds nuw i8, ptr %.018, i64 4
  %6 = load i32, ptr %5, align 4
  %7 = getelementptr inbounds nuw i8, ptr %.018, i64 32
  %8 = load i16, ptr %7, align 8
  %9 = zext i16 %8 to i32
  %10 = add i32 %6, %9
  %11 = zext i32 %10 to i64
  %.not13 = icmp ult i64 %1, %11
  br i1 %.not13, label %22, label %12

12:                                               ; preds = %.lr.ph
  %13 = zext i32 %6 to i64
  %14 = getelementptr inbounds nuw i8, ptr %0, i64 %13
  %15 = getelementptr inbounds nuw i8, ptr %.018, i64 8
  %16 = load ptr, ptr %15, align 8
  %17 = zext i16 %8 to i64
  %bcmp = tail call i32 @bcmp(ptr %14, ptr %16, i64 %17)
  %.not14 = icmp eq i32 %bcmp, 0
  br i1 %.not14, label %18, label %22

18:                                               ; preds = %12
  %19 = getelementptr inbounds nuw i8, ptr %.018, i64 16
  %20 = load ptr, ptr %19, align 8
  tail call void (ptr, ...) @cli_dbgmsg(ptr noundef nonnull @.str, ptr noundef %20) #10
  %21 = load i32, ptr %.018, align 8
  br label %24

22:                                               ; preds = %12, %.lr.ph
  %23 = getelementptr inbounds nuw i8, ptr %.018, i64 24
  %.0 = load ptr, ptr %23, align 8
  %.not = icmp eq ptr %.0, null
  br i1 %.not, label %._crit_edge, label %.lr.ph

._crit_edge:                                      ; preds = %22, %3
  tail call void (ptr, ...) @cli_dbgmsg(ptr noundef nonnull @.str.1) #10
  br label %24

24:                                               ; preds = %._crit_edge, %18
  %.012 = phi i32 [ %21, %18 ], [ 557, %._crit_edge ]
  ret i32 %.012
}